target datalayout = "e-m:e-p270:32:32-p271:32:32-p272:64:64-i64:64-i128:128-f80:128-n8:16:32:64-S128"
target triple = "x86_64-pc-linux-gnu"

%struct.movedb_failure_params = type { i32, i32 }

; Function Attrs: inlinehint nounwind uwtable
define internal ptr @DatumGetPointer(i64 noundef %0) #7 {
  %2 = alloca i64, align 8
  store i64 %0, ptr %2, align 8
  %3 = load i64, ptr %2, align 8
  %4 = inttoptr i64 %3 to ptr
  ret ptr %4
}

; Function Attrs: nounwind uwtable
define internal void @movedb_failure_callback(i32 noundef %0, i64 noundef %1) #0 {
  %3 = alloca i32, align 4
  %4 = alloca i64, align 8
  %5 = alloca ptr, align 8
  %6 = alloca ptr, align 8
  store i32 %0, ptr %3, align 4
  store i64 %1, ptr %4, align 8
  call void @llvm.lifetime.start.p0(i64 8, ptr %5) #14
  %7 = load i64, ptr %4, align 8
  %8 = call ptr @DatumGetPointer(i64 noundef %7)
  store ptr %8, ptr %5, align 8
  call void @llvm.lifetime.start.p0(i64 8, ptr %6) #14
  %9 = load ptr, ptr %5, align 8
  %10 = getelementptr inbounds nuw %struct.movedb_failure_params, ptr %9, i32 0, i32 0
  %11 = load i32, ptr %10, align 4
  %12 = load ptr, ptr %5, align 8
  %13 = getelementptr inbounds nuw %struct.movedb_failure_params, ptr %12, i32 0, i32 1
  %14 = load i32, ptr %13, align 4
  %15 = call ptr @GetDatabasePath(i32 noundef %11, i32 noundef %14)
  store ptr %15, ptr %6, align 8
  %16 = load ptr, ptr %6, align 8
  %17 = call zeroext i1 @rmtree(ptr noundef %16, i1 noundef zeroext true)
  %18 = load ptr, ptr %6, align 8
  call void @pfree(ptr noundef %18)
  call void @llvm.lifetime.end.p0(i64 8, ptr %6) #14
  call void @llvm.lifetime.end.p0(i64 8, ptr %5) #14
  ret void
}