; Function Attrs: nounwind uwtable
define internal void @movedb_failure_callback(i32 %0, i64 noundef %1) #0 {
  %3 = inttoptr i64 %1 to ptr
  %4 = load i32, ptr %3, align 4
  %5 = getelementptr inbounds nuw i8, ptr %3, i64 4
  %6 = load i32, ptr %5, align 4
  %7 = tail call ptr @GetDatabasePath(i32 noundef %4, i32 noundef %6) #16
  %8 = tail call zeroext i1 @rmtree(ptr noundef %7, i1 noundef zeroext true) #16
  tail call void @pfree(ptr noundef %7) #16
  ret void
}